(dp1
S'collector'
p2
S'coverage v3.0.1'
p3
sS'lines'
p4
(dp5
S'/Users/chrism/projects/repoze/svn/venusian/trunk/venusian/tests/test_advice.py'
p6
(lp7
I28
aI30
aI31
aI32
aI33
aI35
aI37
aI38
aI39
aI41
aI43
aI44
aI45
aI47
aI48
aI49
aI51
aI53
aI55
aI57
aI58
aI59
aI60
aI61
aI63
aI64
aI65
aI67
aI68
aI69
aI71
aI72
aI73
aI75
aI76
aI78
aI79
aI80
aI81
aI82
aI83
aI86
aI88
aI89
aI90
aI91
aI92
aI93
aI96
aI97
aI98
aI100
aI102
aI103
aI104
aI110
aI112
aI113
aI115
aI116
aI117
aI119
aI120
aI123
aI125
aI126
aI128
aI129
aI131
aI132
aI133
aI134
aI135
aI139
aI141
aI142
aI143
aI145
aI146
aI147
aI149
aI151
aI152
aI154
aI155
aI157
asS'/Users/chrism/projects/repoze/svn/venusian/trunk/venusian/compat/__init__.py'
p8
(lp9
I1
aI2
aI3
aI4
asS'/Users/chrism/projects/repoze/svn/venusian/trunk/venusian/tests/fixtures/module2.py'
p10
(lp11
I1
aI3
aI7
aI8
aI12
aI13
aI16
aI17
asS'/Users/chrism/projects/repoze/svn/venusian/trunk/venusian/tests/test_venusian.py'
p12
(lp13
I1
aI3
aI4
aI5
aI6
aI8
aI9
aI10
aI11
aI12
aI13
aI14
aI15
aI16
aI17
aI18
aI19
aI20
aI21
aI23
aI24
aI25
aI26
aI27
aI28
aI30
aI31
aI32
aI34
aI35
aI36
aI38
aI39
aI40
aI42
aI43
aI44
aI46
aI47
aI48
aI50
aI51
aI52
aI54
aI55
aI56
aI57
aI58
aI59
aI60
aI61
aI62
aI63
aI64
aI65
aI66
aI67
aI69
aI70
aI71
aI73
aI74
aI75
aI77
aI78
aI79
aI81
aI82
aI83
asS'/Users/chrism/projects/repoze/svn/venusian/trunk/venusian/tests/fixtures/__init__.py'
p14
(lp15
I1
aI3
aI4
aI5
aI7
aI8
aI9
aI10
aI11
aI12
aI14
aI15
aI16
asS'/Users/chrism/projects/repoze/svn/venusian/trunk/venusian/advice.py'
p16
(lp17
I28
aI30
aI31
aI33
aI39
aI40
aI42
aI43
aI44
aI46
aI47
aI49
aI51
aI53
aI56
aI57
aI58
aI59
aI60
aI61
aI66
aI69
aI93
aI94
aI104
aI105
aI108
aI110
aI111
aI113
aI114
aI116
aI120
aI124
aI127
aI129
aI132
aI135
aI136
aI139
aI142
aI144
aI147
aI150
aI152
aI155
aI157
aI159
aI161
aI163
aI167
aI169
aI172
aI175
aI178
aI179
aI181
aI182
aI183
aI184
aI187
aI189
aI191
asS'/Users/chrism/projects/repoze/svn/venusian/trunk/venusian/tests/fixtures/module.py'
p18
(lp19
I1
aI3
aI7
aI8
aI12
aI13
aI16
aI17
asS'/Users/chrism/projects/repoze/svn/venusian/trunk/venusian/tests/__init__.py'
p20
(lp21
I0
asS'/Users/chrism/projects/repoze/svn/venusian/trunk/venusian/__init__.py'
p22
(lp23
I1
aI2
aI4
aI5
aI7
aI9
aI10
aI11
aI13
aI21
aI22
aI23
aI24
aI25
aI27
aI28
aI30
aI31
aI33
aI34
aI35
aI36
aI37
aI39
aI40
aI41
aI43
aI44
aI45
aI46
aI48
aI49
aI51
aI52
aI53
aI54
asS'/Users/chrism/projects/repoze/svn/venusian/trunk/venusian/compat/pkgutil_26.py'
p24
(lp25
I1
aI8
aI9
aI10
aI11
aI12
aI14
aI20
aI33
aI35
aI36
aI37
aI38
aI39
aI42
aI43
aI44
aI45
aI46
aI47
aI48
aI51
aI52
aI55
aI56
aI57
aI61
aI62
aI64
aI65
aI67
aI68
aI69
aI70
aI73
aI102
aI107
aI108
aI110
aI131
aI142
aI145
aI147
aI148
aI149
aI150
aI151
aI152
aI156
aI157
aI159
aI161
aI164
aI175
aI176
aI178
aI193
aI194
aI197
aI198
aI200
aI201
aI203
aI204
aI205
aI206
aI208
aI209
aI211
aI221
aI222
aI223
aI226
aI229
aI231
aI237
aI248
aI251
aI259
aI267
aI271
aI288
aI308
aI311
aI321
aI322
aI323
aI325
aI354
aI360
aI373
aI374
aI386
aI387
aI388
aI391
aI394
aI435
aI460
aI476
aI550
ass.